target datalayout = "e-m:e-p270:32:32-p271:32:32-p272:64:64-i64:64-i128:128-f80:128-n8:16:32:64-S128"
target triple = "x86_64-pc-linux-gnu"

%class.JfrThreadLocal = type <{ ptr, ptr, ptr, ptr, ptr, ptr, ptr, ptr, ptr, ptr, %class.RefCountHandle, i64, i64, i64, i64, i64, i64, i64, i64, i64, i64, i64, i32, i32, i32, i16, i8, i8, i8, i8, i8, [5 x i8] }>
%class.RefCountHandle = type { ptr }

; Function Attrs: mustprogress nounwind uwtable
define hidden noundef i32 @_ZNK14JfrThreadLocal10stackdepthEv(ptr noundef nonnull align 8 dereferenceable(195) %0) #1 align 2 {
  %2 = alloca ptr, align 8
  store ptr %0, ptr %2, align 8
  %3 = load ptr, ptr %2, align 8
  %4 = getelementptr inbounds %class.JfrThreadLocal, ptr %3, i32 0, i32 22
  %5 = load i32, ptr %4, align 8
  %6 = icmp ne i32 %5, 0
  br i1 %6, label %7, label %10

7:                                                ; preds = %1
  %8 = getelementptr inbounds %class.JfrThreadLocal, ptr %3, i32 0, i32 22
  %9 = load i32, ptr %8, align 8
  br label %12

10:                                               ; preds = %1
  %11 = call noundef i32 @_ZN12JfrOptionSet10stackdepthEv()
  br label %12

12:                                               ; preds = %10, %7
  %13 = phi i32 [ %9, %7 ], [ %11, %10 ]
  ret i32 %13
}