; Function Attrs: mustprogress nounwind uwtable
define hidden noundef i32 @_ZNK14JfrThreadLocal10stackdepthEv(ptr nocapture noundef nonnull readonly align 8 dereferenceable(195) %0) local_unnamed_addr #0 align 2 {
  %2 = getelementptr inbounds i8, ptr %0, i64 176
  %3 = load i32, ptr %2, align 8
  %.not = icmp eq i32 %3, 0
  br i1 %.not, label %4, label %6

4:                                                ; preds = %1
  %5 = tail call noundef i32 @_ZN12JfrOptionSet10stackdepthEv() #13
  br label %6

6:                                                ; preds = %1, %4
  %7 = phi i32 [ %5, %4 ], [ %3, %1 ]
  ret i32 %7
}